target datalayout = "e-m:e-p270:32:32-p271:32:32-p272:64:64-i64:64-i128:128-f80:128-n8:16:32:64-S128"
target triple = "x86_64-unknown-linux-gnu"

%struct.BlockDriverState = type { i32, i8, i8, i8, i8, i8, ptr, ptr, ptr, %struct.anon, i8, [4096 x i8], [4096 x i8], [4096 x i8], [16 x i8], ptr, [4096 x i8], %struct.BlockLimits, i32, i32, i32, i32, [32 x i8], %union.anon, %union.anon.0, %union.anon.1, i32, [16 x %struct.anon.2], ptr, %struct.anon.3, ptr, ptr, %struct.anon.4, ptr, ptr, i32, ptr, i64, i64, %struct.QemuMutex, %struct.anon.5, %struct.Stat64, i32, i32, i32, i32, i32, i32, %struct.QemuMutex, %struct.anon.6, %struct.CoQueue, i8, i32, i8, %struct.CoMutex, ptr, ptr }
%struct.anon = type { ptr }
%struct.BlockLimits = type { i32, i64, i32, i64, i32, i32, i32, i64, i32, i64, i64, i32, i8, i32, i32, i32, i32, i32, i32, i32 }
%union.anon = type { %struct.QTailQLink }
%struct.QTailQLink = type { ptr, ptr }
%union.anon.0 = type { %struct.QTailQLink }
%union.anon.1 = type { %struct.QTailQLink }
%struct.anon.2 = type { ptr }
%struct.anon.3 = type { ptr }
%struct.anon.4 = type { ptr }
%struct.anon.5 = type { ptr }
%struct.Stat64 = type { i64 }
%struct.QemuMutex = type { %union.pthread_mutex_t, i8 }
%union.pthread_mutex_t = type { %struct.__pthread_mutex_s }
%struct.__pthread_mutex_s = type { i32, i32, i32, i32, i32, i16, i16, %struct.__pthread_internal_list }
%struct.__pthread_internal_list = type { ptr, ptr }
%struct.anon.6 = type { ptr }
%struct.CoQueue = type { %struct.anon.7 }
%struct.anon.7 = type { ptr, ptr }
%struct.CoMutex = type { i32, ptr, %struct.anon.8, %struct.anon.8, i32, i32, ptr }
%struct.anon.8 = type { ptr }
%struct.BDRVQcow2State = type { i32, i32, i32, i32, i32, i32, i32, i32, i32, i32, i32, i32, i32, i32, i64, i64, ptr, ptr, ptr, ptr, i32, %struct.anon.9, ptr, i64, i32, i32, i64, i64, %struct.CoMutex, %struct.Qcow2CryptoHeaderExtension, ptr, ptr, i8, i32, i64, i32, i32, ptr, i32, i64, i64, i32, i32, i8, i32, i32, i64, ptr, ptr, [5 x i8], i8, i32, i8, i64, i64, i64, i64, ptr, %struct.anon.10, %union.anon.11, i8, ptr, ptr, ptr, %struct.CoQueue, i32, ptr, i8, i8, i32 }
%struct.anon.9 = type { ptr }
%struct.Qcow2CryptoHeaderExtension = type { i64, i64 }
%struct.anon.10 = type { ptr }
%union.anon.11 = type { %struct.QTailQLink }
%struct.BdrvChild = type { ptr, ptr, ptr, i32, ptr, i64, i64, i8, i8, %struct.anon.12, %struct.anon.13 }
%struct.anon.12 = type { ptr, ptr }
%struct.anon.13 = type { ptr, ptr }

@.str.3 = private unnamed_addr constant [54 x i8] c"Refblock offset %#lx unaligned (reftable index: %#lx)\00", align 1

; Function Attrs: nounwind sspstrong uwtable
define internal i64 @offset_into_cluster(ptr noundef %s, i64 noundef %offset) #0 {
entry:
  %s.addr = alloca ptr, align 8
  %offset.addr = alloca i64, align 8
  store ptr %s, ptr %s.addr, align 8
  store i64 %offset, ptr %offset.addr, align 8
  %0 = load i64, ptr %offset.addr, align 8
  %1 = load ptr, ptr %s.addr, align 8
  %cluster_size = getelementptr inbounds %struct.BDRVQcow2State, ptr %1, i32 0, i32 1
  %2 = load i32, ptr %cluster_size, align 4
  %sub = sub i32 %2, 1
  %conv = sext i32 %sub to i64
  %and = and i64 %0, %conv
  ret i64 %and
}

; Function Attrs: nounwind sspstrong uwtable
define dso_local i32 @qcow2_get_refcount(ptr noundef %bs, i64 noundef %cluster_index, ptr noundef %refcount) #0 {
entry:
  %retval = alloca i32, align 4
  %bs.addr = alloca ptr, align 8
  %cluster_index.addr = alloca i64, align 8
  %refcount.addr = alloca ptr, align 8
  %s = alloca ptr, align 8
  %refcount_table_index = alloca i64, align 8
  %block_index = alloca i64, align 8
  %refcount_block_offset = alloca i64, align 8
  %ret = alloca i32, align 4
  %refcount_block = alloca ptr, align 8
  store ptr %bs, ptr %bs.addr, align 8
  store i64 %cluster_index, ptr %cluster_index.addr, align 8
  store ptr %refcount, ptr %refcount.addr, align 8
  %0 = load ptr, ptr %bs.addr, align 8
  %opaque = getelementptr inbounds %struct.BlockDriverState, ptr %0, i32 0, i32 7
  %1 = load ptr, ptr %opaque, align 8
  store ptr %1, ptr %s, align 8
  %2 = load i64, ptr %cluster_index.addr, align 8
  %3 = load ptr, ptr %s, align 8
  %refcount_block_bits = getelementptr inbounds %struct.BDRVQcow2State, ptr %3, i32 0, i32 10
  %4 = load i32, ptr %refcount_block_bits, align 8
  %sh_prom = zext i32 %4 to i64
  %shr = ashr i64 %2, %sh_prom
  store i64 %shr, ptr %refcount_table_index, align 8
  %5 = load i64, ptr %refcount_table_index, align 8
  %6 = load ptr, ptr %s, align 8
  %refcount_table_size = getelementptr inbounds %struct.BDRVQcow2State, ptr %6, i32 0, i32 24
  %7 = load i32, ptr %refcount_table_size, align 8
  %conv = zext i32 %7 to i64
  %cmp = icmp uge i64 %5, %conv
  br i1 %cmp, label %if.then, label %if.end

if.then:                                          ; preds = %entry
  %8 = load ptr, ptr %refcount.addr, align 8
  store i64 0, ptr %8, align 8
  store i32 0, ptr %retval, align 4
  br label %return

if.end:                                           ; preds = %entry
  %9 = load ptr, ptr %s, align 8
  %refcount_table = getelementptr inbounds %struct.BDRVQcow2State, ptr %9, i32 0, i32 22
  %10 = load ptr, ptr %refcount_table, align 8
  %11 = load i64, ptr %refcount_table_index, align 8
  %arrayidx = getelementptr i64, ptr %10, i64 %11
  %12 = load i64, ptr %arrayidx, align 8
  %and = and i64 %12, -512
  store i64 %and, ptr %refcount_block_offset, align 8
  %13 = load i64, ptr %refcount_block_offset, align 8
  %tobool = icmp ne i64 %13, 0
  br i1 %tobool, label %if.end3, label %if.then2

if.then2:                                         ; preds = %if.end
  %14 = load ptr, ptr %refcount.addr, align 8
  store i64 0, ptr %14, align 8
  store i32 0, ptr %retval, align 4
  br label %return

if.end3:                                          ; preds = %if.end
  %15 = load ptr, ptr %s, align 8
  %16 = load i64, ptr %refcount_block_offset, align 8
  %call = call i64 @offset_into_cluster(ptr noundef %15, i64 noundef %16)
  %tobool4 = icmp ne i64 %call, 0
  br i1 %tobool4, label %if.then5, label %if.end6

if.then5:                                         ; preds = %if.end3
  %17 = load ptr, ptr %bs.addr, align 8
  %18 = load i64, ptr %refcount_block_offset, align 8
  %19 = load i64, ptr %refcount_table_index, align 8
  call void (ptr, i1, i64, i64, ptr, ...) @qcow2_signal_corruption(ptr noundef %17, i1 noundef zeroext true, i64 noundef -1, i64 noundef -1, ptr noundef @.str.3, i64 noundef %18, i64 noundef %19)
  store i32 -5, ptr %retval, align 4
  br label %return

if.end6:                                          ; preds = %if.end3
  %20 = load ptr, ptr %bs.addr, align 8
  %21 = load ptr, ptr %s, align 8
  %refcount_block_cache = getelementptr inbounds %struct.BDRVQcow2State, ptr %21, i32 0, i32 18
  %22 = load ptr, ptr %refcount_block_cache, align 8
  %23 = load i64, ptr %refcount_block_offset, align 8
  %call7 = call i32 @qcow2_cache_get(ptr noundef %20, ptr noundef %22, i64 noundef %23, ptr noundef %refcount_block)
  store i32 %call7, ptr %ret, align 4
  %24 = load i32, ptr %ret, align 4
  %cmp8 = icmp slt i32 %24, 0
  br i1 %cmp8, label %if.then10, label %if.end11

if.then10:                                        ; preds = %if.end6
  %25 = load i32, ptr %ret, align 4
  store i32 %25, ptr %retval, align 4
  br label %return

if.end11:                                         ; preds = %if.end6
  %26 = load i64, ptr %cluster_index.addr, align 8
  %27 = load ptr, ptr %s, align 8
  %refcount_block_size = getelementptr inbounds %struct.BDRVQcow2State, ptr %27, i32 0, i32 11
  %28 = load i32, ptr %refcount_block_size, align 4
  %sub = sub i32 %28, 1
  %conv12 = sext i32 %sub to i64
  %and13 = and i64 %26, %conv12
  store i64 %and13, ptr %block_index, align 8
  %29 = load ptr, ptr %s, align 8
  %get_refcount = getelementptr inbounds %struct.BDRVQcow2State, ptr %29, i32 0, i32 47
  %30 = load ptr, ptr %get_refcount, align 8
  %31 = load ptr, ptr %refcount_block, align 8
  %32 = load i64, ptr %block_index, align 8
  %call14 = call i64 %30(ptr noundef %31, i64 noundef %32)
  %33 = load ptr, ptr %refcount.addr, align 8
  store i64 %call14, ptr %33, align 8
  %34 = load ptr, ptr %s, align 8
  %refcount_block_cache15 = getelementptr inbounds %struct.BDRVQcow2State, ptr %34, i32 0, i32 18
  %35 = load ptr, ptr %refcount_block_cache15, align 8
  call void @qcow2_cache_put(ptr noundef %35, ptr noundef %refcount_block)
  store i32 0, ptr %retval, align 4
  br label %return

return:                                           ; preds = %if.end11, %if.then10, %if.then5, %if.then2, %if.then
  %36 = load i32, ptr %retval, align 4
  ret i32 %36
}

; Function Attrs: nounwind sspstrong uwtable
define internal i64 @size_to_clusters(ptr noundef %s, i64 noundef %size) #0 {
entry:
  %s.addr = alloca ptr, align 8
  %size.addr = alloca i64, align 8
  store ptr %s, ptr %s.addr, align 8
  store i64 %size, ptr %size.addr, align 8
  %0 = load i64, ptr %size.addr, align 8
  %1 = load ptr, ptr %s.addr, align 8
  %cluster_size = getelementptr inbounds %struct.BDRVQcow2State, ptr %1, i32 0, i32 1
  %2 = load i32, ptr %cluster_size, align 4
  %sub = sub i32 %2, 1
  %conv = sext i32 %sub to i64
  %add = add i64 %0, %conv
  %3 = load ptr, ptr %s.addr, align 8
  %cluster_bits = getelementptr inbounds %struct.BDRVQcow2State, ptr %3, i32 0, i32 0
  %4 = load i32, ptr %cluster_bits, align 8
  %sh_prom = zext i32 %4 to i64
  %shr = lshr i64 %add, %sh_prom
  ret i64 %shr
}

; Function Attrs: nounwind sspstrong uwtable
define internal i64 @alloc_clusters_noref(ptr noundef %bs, i64 noundef %size, i64 noundef %max) #0 {
entry:
  %retval = alloca i64, align 8
  %bs.addr = alloca ptr, align 8
  %size.addr = alloca i64, align 8
  %max.addr = alloca i64, align 8
  %s = alloca ptr, align 8
  %i = alloca i64, align 8
  %nb_clusters = alloca i64, align 8
  %refcount = alloca i64, align 8
  %ret = alloca i32, align 4
  %next_cluster_index = alloca i64, align 8
  store ptr %bs, ptr %bs.addr, align 8
  store i64 %size, ptr %size.addr, align 8
  store i64 %max, ptr %max.addr, align 8
  %0 = load ptr, ptr %bs.addr, align 8
  %opaque = getelementptr inbounds %struct.BlockDriverState, ptr %0, i32 0, i32 7
  %1 = load ptr, ptr %opaque, align 8
  store ptr %1, ptr %s, align 8
  %2 = load ptr, ptr %s, align 8
  %cache_discards = getelementptr inbounds %struct.BDRVQcow2State, ptr %2, i32 0, i32 60
  %3 = load i8, ptr %cache_discards, align 8
  %tobool = trunc i8 %3 to i1
  br i1 %tobool, label %if.then, label %if.end

if.then:                                          ; preds = %entry
  %4 = load ptr, ptr %bs.addr, align 8
  call void @qcow2_process_discards(ptr noundef %4, i32 noundef 0)
  br label %if.end

if.end:                                           ; preds = %if.then, %entry
  %5 = load ptr, ptr %s, align 8
  %6 = load i64, ptr %size.addr, align 8
  %call = call i64 @size_to_clusters(ptr noundef %5, i64 noundef %6)
  store i64 %call, ptr %nb_clusters, align 8
  br label %retry

retry:                                            ; preds = %if.then6, %if.end
  store i64 0, ptr %i, align 8
  br label %for.cond

for.cond:                                         ; preds = %for.inc, %retry
  %7 = load i64, ptr %i, align 8
  %8 = load i64, ptr %nb_clusters, align 8
  %cmp = icmp ult i64 %7, %8
  br i1 %cmp, label %for.body, label %for.end

for.body:                                         ; preds = %for.cond
  %9 = load ptr, ptr %s, align 8
  %free_cluster_index = getelementptr inbounds %struct.BDRVQcow2State, ptr %9, i32 0, i32 26
  %10 = load i64, ptr %free_cluster_index, align 8
  %inc = add i64 %10, 1
  store i64 %inc, ptr %free_cluster_index, align 8
  store i64 %10, ptr %next_cluster_index, align 8
  %11 = load ptr, ptr %bs.addr, align 8
  %12 = load i64, ptr %next_cluster_index, align 8
  %call1 = call i32 @qcow2_get_refcount(ptr noundef %11, i64 noundef %12, ptr noundef %refcount)
  store i32 %call1, ptr %ret, align 4
  %13 = load i32, ptr %ret, align 4
  %cmp2 = icmp slt i32 %13, 0
  br i1 %cmp2, label %if.then3, label %if.else

if.then3:                                         ; preds = %for.body
  %14 = load i32, ptr %ret, align 4
  %conv = sext i32 %14 to i64
  store i64 %conv, ptr %retval, align 8
  br label %return

if.else:                                          ; preds = %for.body
  %15 = load i64, ptr %refcount, align 8
  %cmp4 = icmp ne i64 %15, 0
  br i1 %cmp4, label %if.then6, label %if.end7

if.then6:                                         ; preds = %if.else
  br label %retry

if.end7:                                          ; preds = %if.else
  br label %if.end8

if.end8:                                          ; preds = %if.end7
  br label %for.inc

for.inc:                                          ; preds = %if.end8
  %16 = load i64, ptr %i, align 8
  %inc9 = add i64 %16, 1
  store i64 %inc9, ptr %i, align 8
  br label %for.cond, !llvm.loop !16

for.end:                                          ; preds = %for.cond
  %17 = load ptr, ptr %s, align 8
  %free_cluster_index10 = getelementptr inbounds %struct.BDRVQcow2State, ptr %17, i32 0, i32 26
  %18 = load i64, ptr %free_cluster_index10, align 8
  %cmp11 = icmp ugt i64 %18, 0
  br i1 %cmp11, label %land.lhs.true, label %if.end17

land.lhs.true:                                    ; preds = %for.end
  %19 = load ptr, ptr %s, align 8
  %free_cluster_index13 = getelementptr inbounds %struct.BDRVQcow2State, ptr %19, i32 0, i32 26
  %20 = load i64, ptr %free_cluster_index13, align 8
  %sub = sub i64 %20, 1
  %21 = load i64, ptr %max.addr, align 8
  %22 = load ptr, ptr %s, align 8
  %cluster_bits = getelementptr inbounds %struct.BDRVQcow2State, ptr %22, i32 0, i32 0
  %23 = load i32, ptr %cluster_bits, align 8
  %sh_prom = zext i32 %23 to i64
  %shr = lshr i64 %21, %sh_prom
  %cmp14 = icmp ugt i64 %sub, %shr
  br i1 %cmp14, label %if.then16, label %if.end17

if.then16:                                        ; preds = %land.lhs.true
  store i64 -27, ptr %retval, align 8
  br label %return

if.end17:                                         ; preds = %land.lhs.true, %for.end
  %24 = load ptr, ptr %s, align 8
  %free_cluster_index18 = getelementptr inbounds %struct.BDRVQcow2State, ptr %24, i32 0, i32 26
  %25 = load i64, ptr %free_cluster_index18, align 8
  %26 = load i64, ptr %nb_clusters, align 8
  %sub19 = sub i64 %25, %26
  %27 = load ptr, ptr %s, align 8
  %cluster_bits20 = getelementptr inbounds %struct.BDRVQcow2State, ptr %27, i32 0, i32 0
  %28 = load i32, ptr %cluster_bits20, align 8
  %sh_prom21 = zext i32 %28 to i64
  %shl = shl i64 %sub19, %sh_prom21
  store i64 %shl, ptr %retval, align 8
  br label %return

return:                                           ; preds = %if.end17, %if.then16, %if.then3
  %29 = load i64, ptr %retval, align 8
  ret i64 %29
}

; Function Attrs: nounwind sspstrong uwtable
define dso_local i64 @qcow2_alloc_clusters(ptr noundef %bs, i64 noundef %size) #0 {
entry:
  %retval = alloca i64, align 8
  %bs.addr = alloca ptr, align 8
  %size.addr = alloca i64, align 8
  %offset = alloca i64, align 8
  %ret = alloca i32, align 4
  store ptr %bs, ptr %bs.addr, align 8
  store i64 %size, ptr %size.addr, align 8
  br label %do.body

do.body:                                          ; preds = %entry
  %0 = load ptr, ptr %bs.addr, align 8
  %file = getelementptr inbounds %struct.BlockDriverState, ptr %0, i32 0, i32 31
  %1 = load ptr, ptr %file, align 8
  %tobool = icmp ne ptr %1, null
  br i1 %tobool, label %if.then, label %if.end

if.then:                                          ; preds = %do.body
  %2 = load ptr, ptr %bs.addr, align 8
  %file1 = getelementptr inbounds %struct.BlockDriverState, ptr %2, i32 0, i32 31
  %3 = load ptr, ptr %file1, align 8
  %bs2 = getelementptr inbounds %struct.BdrvChild, ptr %3, i32 0, i32 0
  %4 = load ptr, ptr %bs2, align 8
  call void @bdrv_debug_event(ptr noundef %4, i32 noundef 30)
  br label %if.end

if.end:                                           ; preds = %if.then, %do.body
  br label %do.end

do.end:                                           ; preds = %if.end
  br label %do.body3

do.body3:                                         ; preds = %do.cond, %do.end
  %5 = load ptr, ptr %bs.addr, align 8
  %6 = load i64, ptr %size.addr, align 8
  %call = call i64 @alloc_clusters_noref(ptr noundef %5, i64 noundef %6, i64 noundef 72057594037927935)
  store i64 %call, ptr %offset, align 8
  %7 = load i64, ptr %offset, align 8
  %cmp = icmp slt i64 %7, 0
  br i1 %cmp, label %if.then4, label %if.end5

if.then4:                                         ; preds = %do.body3
  %8 = load i64, ptr %offset, align 8
  store i64 %8, ptr %retval, align 8
  br label %return

if.end5:                                          ; preds = %do.body3
  %9 = load ptr, ptr %bs.addr, align 8
  %10 = load i64, ptr %offset, align 8
  %11 = load i64, ptr %size.addr, align 8
  %call6 = call i32 @update_refcount(ptr noundef %9, i64 noundef %10, i64 noundef %11, i64 noundef 1, i1 noundef zeroext false, i32 noundef 0)
  store i32 %call6, ptr %ret, align 4
  br label %do.cond

do.cond:                                          ; preds = %if.end5
  %12 = load i32, ptr %ret, align 4
  %cmp7 = icmp eq i32 %12, -11
  br i1 %cmp7, label %do.body3, label %do.end8, !llvm.loop !15

do.end8:                                          ; preds = %do.cond
  %13 = load i32, ptr %ret, align 4
  %cmp9 = icmp slt i32 %13, 0
  br i1 %cmp9, label %if.then10, label %if.end11

if.then10:                                        ; preds = %do.end8
  %14 = load i32, ptr %ret, align 4
  %conv = sext i32 %14 to i64
  store i64 %conv, ptr %retval, align 8
  br label %return

if.end11:                                         ; preds = %do.end8
  %15 = load i64, ptr %offset, align 8
  store i64 %15, ptr %retval, align 8
  br label %return

return:                                           ; preds = %if.end11, %if.then10, %if.then4
  %16 = load i64, ptr %retval, align 8
  ret i64 %16
}