; Function Attrs: nounwind sspstrong uwtable
define dso_local i64 @qcow2_alloc_clusters(ptr noundef %bs, i64 noundef %size) local_unnamed_addr #0 {
entry:
  %refcount_block.i = alloca ptr, align 8
  %file = getelementptr inbounds nuw i8, ptr %bs, i64 16840
  %0 = load ptr, ptr %file, align 8
  %tobool.not = icmp eq ptr %0, null
  br i1 %tobool.not, label %do.end, label %if.then

if.then:                                          ; preds = %entry
  %1 = load ptr, ptr %0, align 8
  tail call void @bdrv_debug_event(ptr noundef %1, i32 noundef 30) #17
  br label %do.end

do.end:                                           ; preds = %entry, %if.then
  %opaque.i = getelementptr inbounds nuw i8, ptr %bs, i64 24
  br label %do.body3

do.body3:                                         ; preds = %if.end5, %do.end
  %2 = load ptr, ptr %opaque.i, align 8
  %cache_discards.i = getelementptr inbounds nuw i8, ptr %2, i64 424
  %3 = load i8, ptr %cache_discards.i, align 8
  %tobool.i = trunc i8 %3 to i1
  br i1 %tobool.i, label %if.then.i, label %if.end.i

if.then.i:                                        ; preds = %do.body3
  call void @qcow2_process_discards(ptr noundef nonnull %bs, i32 noundef 0)
  br label %if.end.i

if.end.i:                                         ; preds = %if.then.i, %do.body3
  %.val.i = load i32, ptr %2, align 8
  %4 = getelementptr i8, ptr %2, i64 4
  %.val13.i = load i32, ptr %4, align 4
  %sub.i.i = add i32 %.val13.i, -1
  %conv.i.i = sext i32 %sub.i.i to i64
  %add.i.i = add i64 %size, %conv.i.i
  %sh_prom.i.i = zext nneg i32 %.val.i to i64
  %shr.i.i = lshr i64 %add.i.i, %sh_prom.i.i
  %cmp15.not.i = icmp eq i64 %shr.i.i, 0
  br i1 %cmp15.not.i, label %for.end.i, label %for.body.lr.ph.lr.ph.i

for.body.lr.ph.lr.ph.i:                           ; preds = %if.end.i
  %free_cluster_index.i = getelementptr inbounds nuw i8, ptr %2, i64 144
  br label %for.body.us.i

for.cond.us.i:                                    ; preds = %if.else.us.i.thread, %if.else.us.i
  %inc9.us.i = add nuw i64 %i.016.us.i, 1
  %exitcond.not.i = icmp eq i64 %inc9.us.i, %shr.i.i
  br i1 %exitcond.not.i, label %for.end.loopexit.i, label %for.body.us.i.backedge

for.body.us.i.backedge:                           ; preds = %for.cond.us.i, %if.else.us.i
  %i.016.us.i.be = phi i64 [ %inc9.us.i, %for.cond.us.i ], [ 0, %if.else.us.i ]
  br label %for.body.us.i, !llvm.loop !14

for.body.us.i:                                    ; preds = %for.body.us.i.backedge, %for.body.lr.ph.lr.ph.i
  %i.016.us.i = phi i64 [ 0, %for.body.lr.ph.lr.ph.i ], [ %i.016.us.i.be, %for.body.us.i.backedge ]
  %5 = load i64, ptr %free_cluster_index.i, align 8
  %inc.us.i = add i64 %5, 1
  store i64 %inc.us.i, ptr %free_cluster_index.i, align 8
  call void @llvm.lifetime.start.p0(i64 8, ptr nonnull %refcount_block.i)
  %6 = load ptr, ptr %opaque.i, align 8
  %refcount_block_bits.i = getelementptr inbounds nuw i8, ptr %6, i64 40
  %7 = load i32, ptr %refcount_block_bits.i, align 8
  %sh_prom.i11 = zext nneg i32 %7 to i64
  %shr.i12 = ashr i64 %5, %sh_prom.i11
  %refcount_table_size.i = getelementptr inbounds nuw i8, ptr %6, i64 136
  %8 = load i32, ptr %refcount_table_size.i, align 8
  %conv.i13 = zext i32 %8 to i64
  %cmp.not.i = icmp ult i64 %shr.i12, %conv.i13
  br i1 %cmp.not.i, label %if.end.i16, label %if.else.us.i.thread

if.end.i16:                                       ; preds = %for.body.us.i
  %refcount_table.i = getelementptr inbounds nuw i8, ptr %6, i64 120
  %9 = load ptr, ptr %refcount_table.i, align 8
  %arrayidx.i = getelementptr i64, ptr %9, i64 %shr.i12
  %10 = load i64, ptr %arrayidx.i, align 8
  %and.i = and i64 %10, -512
  %tobool.not.i = icmp eq i64 %and.i, 0
  br i1 %tobool.not.i, label %if.else.us.i.thread, label %if.end3.i

if.end3.i:                                        ; preds = %if.end.i16
  %11 = getelementptr i8, ptr %6, i64 4
  %.val.i17 = load i32, ptr %11, align 4
  %sub.i.i18 = add i32 %.val.i17, -1
  %conv.i.i19 = sext i32 %sub.i.i18 to i64
  %and.i.i = and i64 %and.i, %conv.i.i19
  %tobool4.not.i = icmp eq i64 %and.i.i, 0
  br i1 %tobool4.not.i, label %if.end6.i, label %if.then5.i

if.then5.i:                                       ; preds = %if.end3.i
  call void (ptr, i1, i64, i64, ptr, ...) @qcow2_signal_corruption(ptr noundef nonnull %bs, i1 noundef zeroext true, i64 noundef -1, i64 noundef -1, ptr noundef nonnull @.str.3, i64 noundef %and.i, i64 noundef %shr.i12) #17
  br label %if.then3.i

if.end6.i:                                        ; preds = %if.end3.i
  %refcount_block_cache.i = getelementptr inbounds nuw i8, ptr %6, i64 88
  %12 = load ptr, ptr %refcount_block_cache.i, align 8
  %call7.i = call i32 @qcow2_cache_get(ptr noundef nonnull %bs, ptr noundef %12, i64 noundef %and.i, ptr noundef nonnull %refcount_block.i) #17
  %cmp8.i = icmp slt i32 %call7.i, 0
  br i1 %cmp8.i, label %if.then3.i.loopexit, label %if.else.us.i

if.else.us.i.thread:                              ; preds = %if.end.i16, %for.body.us.i
  call void @llvm.lifetime.end.p0(i64 8, ptr nonnull %refcount_block.i)
  br label %for.cond.us.i

if.else.us.i:                                     ; preds = %if.end6.i
  %refcount_block_size.i = getelementptr inbounds nuw i8, ptr %6, i64 44
  %13 = load i32, ptr %refcount_block_size.i, align 4
  %sub.i20 = add i32 %13, -1
  %conv12.i = sext i32 %sub.i20 to i64
  %and13.i = and i64 %5, %conv12.i
  %get_refcount.i = getelementptr inbounds nuw i8, ptr %6, i64 328
  %14 = load ptr, ptr %get_refcount.i, align 8
  %15 = load ptr, ptr %refcount_block.i, align 8
  %call14.i = call i64 %14(ptr noundef %15, i64 noundef %and13.i) #17
  %16 = load ptr, ptr %refcount_block_cache.i, align 8
  call void @qcow2_cache_put(ptr noundef %16, ptr noundef nonnull %refcount_block.i) #17
  call void @llvm.lifetime.end.p0(i64 8, ptr nonnull %refcount_block.i)
  %cmp4.not.us.i = icmp eq i64 %call14.i, 0
  br i1 %cmp4.not.us.i, label %for.cond.us.i, label %for.body.us.i.backedge

if.then3.i.loopexit:                              ; preds = %if.end6.i
  %17 = sext i32 %call7.i to i64
  br label %if.then3.i

if.then3.i:                                       ; preds = %if.then3.i.loopexit, %if.then5.i
  %retval.0.i15 = phi i64 [ -5, %if.then5.i ], [ %17, %if.then3.i.loopexit ]
  call void @llvm.lifetime.end.p0(i64 8, ptr nonnull %refcount_block.i)
  br label %return

for.end.loopexit.i:                               ; preds = %for.cond.us.i
  %.pre.pre.i = load i32, ptr %2, align 8
  br label %for.end.i

for.end.i:                                        ; preds = %for.end.loopexit.i, %if.end.i
  %.pre.i = phi i32 [ %.pre.pre.i, %for.end.loopexit.i ], [ %.val.i, %if.end.i ]
  %free_cluster_index10.i = getelementptr inbounds nuw i8, ptr %2, i64 144
  %18 = load i64, ptr %free_cluster_index10.i, align 8
  %cmp11.not.i = icmp eq i64 %18, 0
  br i1 %cmp11.not.i, label %for.end.if.end17_crit_edge.i, label %land.lhs.true.i

for.end.if.end17_crit_edge.i:                     ; preds = %for.end.i
  %.pre20.i = zext nneg i32 %.pre.i to i64
  br label %alloc_clusters_noref.exit

land.lhs.true.i:                                  ; preds = %for.end.i
  %sub.i = add i64 %18, -1
  %sh_prom.i = zext nneg i32 %.pre.i to i64
  %shr.i = lshr i64 72057594037927935, %sh_prom.i
  %cmp14.i = icmp ugt i64 %sub.i, %shr.i
  br i1 %cmp14.i, label %return, label %alloc_clusters_noref.exit

alloc_clusters_noref.exit:                        ; preds = %for.end.if.end17_crit_edge.i, %land.lhs.true.i
  %sh_prom21.pre-phi.i = phi i64 [ %.pre20.i, %for.end.if.end17_crit_edge.i ], [ %sh_prom.i, %land.lhs.true.i ]
  %sub19.i = sub i64 %18, %shr.i.i
  %shl.i = shl i64 %sub19.i, %sh_prom21.pre-phi.i
  %cmp = icmp slt i64 %shl.i, 0
  br i1 %cmp, label %return, label %if.end5

if.end5:                                          ; preds = %alloc_clusters_noref.exit
  %call6 = call fastcc i32 @update_refcount(ptr noundef nonnull %bs, i64 noundef %shl.i, i64 noundef %size, i64 noundef 1, i1 noundef zeroext false, i32 noundef 0)
  %cmp7 = icmp eq i32 %call6, -11
  br i1 %cmp7, label %do.body3, label %do.end8, !llvm.loop !16

do.end8:                                          ; preds = %if.end5
  %cmp9 = icmp slt i32 %call6, 0
  %conv = sext i32 %call6 to i64
  %spec.select = select i1 %cmp9, i64 %conv, i64 %shl.i
  br label %return

return:                                           ; preds = %land.lhs.true.i, %alloc_clusters_noref.exit, %if.then3.i, %do.end8
  %retval.0 = phi i64 [ %spec.select, %do.end8 ], [ %retval.0.i15, %if.then3.i ], [ -27, %land.lhs.true.i ], [ %shl.i, %alloc_clusters_noref.exit ]
  ret i64 %retval.0
}